; Function Attrs: nounwind uwtable
define ptr @l_Lean_Elab_InfoTree_smallestInfo_x3f___lambda__1(ptr noundef %0, ptr noundef %1, ptr noundef %2, ptr readnone captures(none) %3) local_unnamed_addr #0 {
  %5 = ptrtoint ptr %2 to i64
  %6 = and i64 %5, 1
  %.not = icmp eq i64 %6, 0
  br i1 %.not, label %7, label %lean_inc.exit

7:                                                ; preds = %4
  %.val.i = load i32, ptr %2, align 4, !tbaa !4
  %8 = icmp sgt i32 %.val.i, 0
  br i1 %8, label %9, label %11, !prof !15

9:                                                ; preds = %7
  %10 = add nuw i32 %.val.i, 1
  store i32 %10, ptr %2, align 4, !tbaa !4
  br label %lean_inc.exit

11:                                               ; preds = %7
  %.not.i22 = icmp eq i32 %.val.i, 0
  br i1 %.not.i22, label %lean_inc.exit, label %12

12:                                               ; preds = %11
  tail call void @lean_inc_ref_cold(ptr noundef nonnull %2) #7
  br label %lean_inc.exit

lean_inc.exit:                                    ; preds = %12, %11, %9, %4
  %13 = tail call ptr @lean_apply_1(ptr noundef %0, ptr noundef %2) #7
  %14 = ptrtoint ptr %13 to i64
  %15 = and i64 %14, 1
  %.not24 = icmp eq i64 %15, 0
  br i1 %.not24, label %16, label %lean_dec.exit17

16:                                               ; preds = %lean_inc.exit
  %17 = load i32, ptr %13, align 4, !tbaa !4
  %18 = icmp sgt i32 %17, 1
  br i1 %18, label %19, label %21, !prof !15

19:                                               ; preds = %16
  %20 = add nsw i32 %17, -1
  store i32 %20, ptr %13, align 4, !tbaa !4
  br label %lean_dec.exit17

21:                                               ; preds = %16
  %.not.i = icmp eq i32 %17, 0
  br i1 %.not.i, label %lean_dec.exit17, label %22

22:                                               ; preds = %21
  tail call void @lean_dec_ref_cold(ptr noundef nonnull %13) #7
  br label %lean_dec.exit17

lean_dec.exit17:                                  ; preds = %22, %21, %19, %lean_inc.exit
  %23 = and i64 %14, 510
  %24 = icmp eq i64 %23, 0
  br i1 %24, label %25, label %42

25:                                               ; preds = %lean_dec.exit17
  br i1 %.not, label %26, label %lean_dec.exit16

26:                                               ; preds = %25
  %27 = load i32, ptr %2, align 4, !tbaa !4
  %28 = icmp sgt i32 %27, 1
  br i1 %28, label %29, label %31, !prof !15

29:                                               ; preds = %26
  %30 = add nsw i32 %27, -1
  store i32 %30, ptr %2, align 4, !tbaa !4
  br label %lean_dec.exit16

31:                                               ; preds = %26
  %.not.i18 = icmp eq i32 %27, 0
  br i1 %.not.i18, label %lean_dec.exit16, label %32

32:                                               ; preds = %31
  tail call void @lean_dec_ref_cold(ptr noundef nonnull %2) #7
  br label %lean_dec.exit16

lean_dec.exit16:                                  ; preds = %32, %31, %29, %25
  %33 = ptrtoint ptr %1 to i64
  %34 = and i64 %33, 1
  %.not25 = icmp eq i64 %34, 0
  br i1 %.not25, label %35, label %lean_dec.exit

35:                                               ; preds = %lean_dec.exit16
  %36 = load i32, ptr %1, align 4, !tbaa !4
  %37 = icmp sgt i32 %36, 1
  br i1 %37, label %38, label %40, !prof !15

38:                                               ; preds = %35
  %39 = add nsw i32 %36, -1
  store i32 %39, ptr %1, align 4, !tbaa !4
  br label %lean_dec.exit

40:                                               ; preds = %35
  %.not.i20 = icmp eq i32 %36, 0
  br i1 %.not.i20, label %lean_dec.exit, label %41

41:                                               ; preds = %40
  tail call void @lean_dec_ref_cold(ptr noundef nonnull %1) #7
  br label %lean_dec.exit

42:                                               ; preds = %lean_dec.exit17
  tail call void @lean_inc_heartbeat() #7
  %43 = tail call noalias ptr @mi_malloc_small(i64 noundef 24) #7
  %44 = icmp eq ptr %43, null
  br i1 %44, label %45, label %lean_alloc_ctor.exit

45:                                               ; preds = %42
  tail call void @lean_internal_panic_out_of_memory() #8
  unreachable

lean_alloc_ctor.exit:                             ; preds = %42
  %46 = getelementptr inbounds nuw i8, ptr %43, i64 4
  store i32 1, ptr %43, align 4, !tbaa !4
  store i32 131096, ptr %46, align 4
  %47 = getelementptr inbounds nuw i8, ptr %43, i64 8
  store ptr %1, ptr %47, align 8, !tbaa !9
  %48 = getelementptr inbounds nuw i8, ptr %43, i64 16
  store ptr %2, ptr %48, align 8, !tbaa !9
  tail call void @lean_inc_heartbeat() #7
  %49 = tail call noalias ptr @mi_malloc_small(i64 noundef 16) #7
  %50 = icmp eq ptr %49, null
  br i1 %50, label %51, label %lean_alloc_ctor.exit23

51:                                               ; preds = %lean_alloc_ctor.exit
  tail call void @lean_internal_panic_out_of_memory() #8
  unreachable

lean_alloc_ctor.exit23:                           ; preds = %lean_alloc_ctor.exit
  %52 = getelementptr inbounds nuw i8, ptr %49, i64 4
  store i32 1, ptr %49, align 4, !tbaa !4
  store i32 16842768, ptr %52, align 4
  %53 = getelementptr inbounds nuw i8, ptr %49, i64 8
  store ptr %43, ptr %53, align 8, !tbaa !9
  br label %lean_dec.exit

lean_dec.exit:                                    ; preds = %lean_dec.exit16, %38, %40, %41, %lean_alloc_ctor.exit23
  %.0 = phi ptr [ %49, %lean_alloc_ctor.exit23 ], [ inttoptr (i64 1 to ptr), %41 ], [ inttoptr (i64 1 to ptr), %40 ], [ inttoptr (i64 1 to ptr), %38 ], [ inttoptr (i64 1 to ptr), %lean_dec.exit16 ]
  ret ptr %.0
}